; ModuleID = '29/880.c'
source_filename = "29/880.c"
target datalayout = "e-m:e-p270:32:32-p271:32:32-p272:64:64-i64:64-f80:128-n8:16:32:64-S128"
target triple = "x86_64-pc-linux-gnu"

@.str = private unnamed_addr constant [3 x i8] c"%d\00", align 1
@.str.1 = private unnamed_addr constant [6 x i8] c"%.3f\0A\00", align 1

; Function Attrs: noinline nounwind uwtable
define dso_local float @yzs(i32 %0) #0 {
  %2 = alloca i32, align 4
  %3 = alloca i32, align 4
  %4 = alloca [100 x float], align 16
  %5 = alloca [100 x float], align 16
  %6 = alloca float, align 4
  store i32 %0, i32* %2, align 4
  store float 0.000000e+00, float* %6, align 4
  %7 = getelementptr inbounds [100 x float], [100 x float]* %4, i64 0, i64 0
  store float 1.000000e+00, float* %7, align 16
  %8 = getelementptr inbounds [100 x float], [100 x float]* %4, i64 0, i64 1
  store float 2.000000e+00, float* %8, align 4
  store i32 2, i32* %3, align 4
  br label %9

9:                                                ; preds = %29, %1
  %10 = load i32, i32* %3, align 4
  %11 = load i32, i32* %2, align 4
  %12 = add nsw i32 %11, 1
  %13 = icmp slt i32 %10, %12
  br i1 %13, label %14, label %32

14:                                               ; preds = %9
  %15 = load i32, i32* %3, align 4
  %16 = sub nsw i32 %15, 1
  %17 = sext i32 %16 to i64
  %18 = getelementptr inbounds [100 x float], [100 x float]* %4, i64 0, i64 %17
  %19 = load float, float* %18, align 4
  %20 = load i32, i32* %3, align 4
  %21 = sub nsw i32 %20, 2
  %22 = sext i32 %21 to i64
  %23 = getelementptr inbounds [100 x float], [100 x float]* %4, i64 0, i64 %22
  %24 = load float, float* %23, align 4
  %25 = fadd float %19, %24
  %26 = load i32, i32* %3, align 4
  %27 = sext i32 %26 to i64
  %28 = getelementptr inbounds [100 x float], [100 x float]* %4, i64 0, i64 %27
  store float %25, float* %28, align 4
  br label %29

29:                                               ; preds = %14
  %30 = load i32, i32* %3, align 4
  %31 = add nsw i32 %30, 1
  store i32 %31, i32* %3, align 4
  br label %9

32:                                               ; preds = %9
  store i32 0, i32* %3, align 4
  br label %33

33:                                               ; preds = %57, %32
  %34 = load i32, i32* %3, align 4
  %35 = load i32, i32* %2, align 4
  %36 = icmp slt i32 %34, %35
  br i1 %36, label %37, label %60

37:                                               ; preds = %33
  %38 = load i32, i32* %3, align 4
  %39 = add nsw i32 %38, 1
  %40 = sext i32 %39 to i64
  %41 = getelementptr inbounds [100 x float], [100 x float]* %4, i64 0, i64 %40
  %42 = load float, float* %41, align 4
  %43 = load i32, i32* %3, align 4
  %44 = sext i32 %43 to i64
  %45 = getelementptr inbounds [100 x float], [100 x float]* %4, i64 0, i64 %44
  %46 = load float, float* %45, align 4
  %47 = fdiv float %42, %46
  %48 = load i32, i32* %3, align 4
  %49 = sext i32 %48 to i64
  %50 = getelementptr inbounds [100 x float], [100 x float]* %5, i64 0, i64 %49
  store float %47, float* %50, align 4
  %51 = load i32, i32* %3, align 4
  %52 = sext i32 %51 to i64
  %53 = getelementptr inbounds [100 x float], [100 x float]* %5, i64 0, i64 %52
  %54 = load float, float* %53, align 4
  %55 = load float, float* %6, align 4
  %56 = fadd float %55, %54
  store float %56, float* %6, align 4
  br label %57

57:                                               ; preds = %37
  %58 = load i32, i32* %3, align 4
  %59 = add nsw i32 %58, 1
  store i32 %59, i32* %3, align 4
  br label %33

60:                                               ; preds = %33
  %61 = load float, float* %6, align 4
  ret float %61
}

; Function Attrs: noinline nounwind uwtable
define dso_local i32 @main() #0 {
  %1 = alloca i32, align 4
  %2 = alloca i32, align 4
  %3 = alloca i32, align 4
  %4 = alloca i32, align 4
  %5 = alloca [100 x i32], align 16
  store i32 0, i32* %1, align 4
  %6 = call i32 (i8*, ...) @__isoc99_scanf(i8* getelementptr inbounds ([3 x i8], [3 x i8]* @.str, i64 0, i64 0), i32* %3)
  store i32 0, i32* %4, align 4
  br label %7

7:                                                ; preds = %16, %0
  %8 = load i32, i32* %4, align 4
  %9 = load i32, i32* %3, align 4
  %10 = icmp slt i32 %8, %9
  br i1 %10, label %11, label %19

11:                                               ; preds = %7
  %12 = load i32, i32* %4, align 4
  %13 = sext i32 %12 to i64
  %14 = getelementptr inbounds [100 x i32], [100 x i32]* %5, i64 0, i64 %13
  %15 = call i32 (i8*, ...) @__isoc99_scanf(i8* getelementptr inbounds ([3 x i8], [3 x i8]* @.str, i64 0, i64 0), i32* %14)
  br label %16

16:                                               ; preds = %11
  %17 = load i32, i32* %4, align 4
  %18 = add nsw i32 %17, 1
  store i32 %18, i32* %4, align 4
  br label %7

19:                                               ; preds = %7
  store i32 0, i32* %4, align 4
  br label %20

20:                                               ; preds = %32, %19
  %21 = load i32, i32* %4, align 4
  %22 = load i32, i32* %3, align 4
  %23 = icmp slt i32 %21, %22
  br i1 %23, label %24, label %35

24:                                               ; preds = %20
  %25 = load i32, i32* %4, align 4
  %26 = sext i32 %25 to i64
  %27 = getelementptr inbounds [100 x i32], [100 x i32]* %5, i64 0, i64 %26
  %28 = load i32, i32* %27, align 4
  %29 = call float @yzs(i32 %28)
  %30 = fpext float %29 to double
  %31 = call i32 (i8*, ...) @printf(i8* getelementptr inbounds ([6 x i8], [6 x i8]* @.str.1, i64 0, i64 0), double %30)
  br label %32

32:                                               ; preds = %24
  %33 = load i32, i32* %4, align 4
  %34 = add nsw i32 %33, 1
  store i32 %34, i32* %4, align 4
  br label %20

35:                                               ; preds = %20
  ret i32 0
}

declare dso_local i32 @__isoc99_scanf(i8*, ...) #1

declare dso_local i32 @printf(i8*, ...) #1


!llvm.module.flags = !{!0}
!llvm.ident = !{!1}

!0 = !{i32 1, !"wchar_size", i32 4}
!1 = !{!"clang version 10.0.0-4ubuntu1 "}
